; Function Attrs: nounwind uwtable
define internal void @mi_pthread_done(ptr noundef %0) #0 {
  %.not = icmp eq ptr %0, null
  br i1 %.not, label %3, label %2

2:                                                ; preds = %1
  tail call void @_mi_thread_done(ptr noundef nonnull %0) #10
  br label %3

3:                                                ; preds = %2, %1
  ret void
}